(dp1
S'duanzi'
p2
(lp3
V\u4e0a\u73ed\u770b\u5230\u540c\u4e8b\u7a7f\u4e86\u4e00\u53cc\u65b0\u7684\u65e0\u5c18\u978b\uff0c\u770b\u7740\u4e0d\u9519\uff0c\u4e8e\u662f\u95ee\u4ed6\uff1a\u591a\u5c11\u94b1\u4e70\u7684\uff1f<br/>\u540c\u4e8b\uff1a \u6211\u8001\u5a46\u4e70\u7684\u3002<br/>\u5305\u90ae\u4e0d\uff1f<br/>\u540c\u4e8b\uff1a\u4e0d\u77e5\u9053\uff0c\u6211\u8001\u5a46\u4e70\u7684\u3002<br/>\u7a7f\u7740\u611f\u89c9\u600e\u4e48\u6837\uff1f<br/>\u540c\u4e8b\uff1a\u5f53\u7136\u8212\u670d\u554a\uff0c\u56e0\u4e3a\u662f\u6211\u8001\u5a46\u4e70\u7684\u3002<br/><br/>\u65e5\u4e86\u72d7\u4e86\uff0c\u8111\u8865\u4e0b\uff0c\u90a3\u79cd\u88ab\u5f3a\u884c\u585e\u4e00\u628a\u72d7\u7cae\u662f\u4ec0\u4e48\u611f\u89c9\u3002\u3002\u3002\u3002\u4e00\u5f00\u59cb\u6211\u662f\u62d2\u7edd\u7684
p4
aV\u7cbd\u5b50\u8282\u5230\u4e86\uff0c\u63d0\u4e86\u4e32\u7cbd\u5b50\uff0c\u60f3\u5ffd\u60a0\u5916\u6559\u5403\u7cbd\u53f6\uff0c\uff0c\uff0c\u4e3a\u4e86\u903c\u771f\uff0c\u6211\u5148\u7ed9\u4ed6\u6f14\u793a\uff0c\u628a\u7cbd\u53f6\u653e\u5634\u91cc\u8ba4\u771f\u7684\u5480\u56bc\uff01\uff01\uff01\u5916\u6559\u62ff\u8d77\u4e00\u4e2a\u7cbd\u5b50\uff0c\u719f\u7ec3\u7684\u5265\u5f00\u7cbd\u53f6\uff0c\u5403\u7740\u7cbd\u5b50\uff0c\u773c\u795e\u91cc\u6d41\u9732\u51fa\u6765\u7684\u620f\u8c11\u4eff\u4f5b\u518d\u8bf4\u7740\u4e24\u4e2a\u5b57\u3002\u3002\u3002\u6211\u9760\uff0c\u5267\u60c5\u4e0d\u5bf9\u554a\uff01\uff01
p5
aV\u6211\u90a3\u795e\u5947\u7684\u95fa\u871c\uff0c\u6bcf\u4e00\u6b21\u90fd\u80fd\u731c\u4e2d\u6211\u7684\u5fc3\u601d\u2026\u2026\u54ce\u2026\u2026\u5c31\u6709\u4e00\u6b21\u548c\u7537\u795e\u7ea6\u4f1a\uff0c\u6211\u628a\u8863\u67dc\u7684\u8863\u670d\u90fd\u7ffb\u4e86\u4e2a\u9876\u671d\u5929\uff0c\u53eb\u6765\u95fa\u871c\u5e2e\u6211\u770b\u770b\u7a7f\u54ea\u5957\u66f4\u5408\u9002\u3002\u95fa\u871c\u6478\u7740\u4e0b\u5df4\u4e25\u8083\u5730\u8bf4\u9053:\u201c\u7ea6\u4f1a\u2026\u2026\u7a7f\u7687\u5e1d\u7684\u65b0\u8863\u6700\u5408\u9002\uff01\u201d    \u6211\u2026\u2026\u2026
p6
aV\u6362\u5b63\u53bb\u56db\u59d0\u5e97\u91cc\u4e70\u8863\u670d\uff0c\u770b\u4e0a\u4e00\u4ef6\u5979\u4e0d\u7ed9\u6211\u6253\u6298\uff0c\u6211\u5c31\u51b3\u5b9a\u4e0d\u8981\u4e86\uff0c\u6ca1\u60f3\u5230\u5979\u8bf4:\u201c\u8fd9\u4ef6\u8863\u670d\uff0c\u4eca\u5929\u4f60\u8981\u662f\u4e0d\u4e70\u56de\u5bb6\uff0c\u660e\u5929\u4f60\u5c31\u518d\u4e5f\u7a7f\u4e0d\u8fdb\u53bb\u4e86\uff0c\u76f8\u4fe1\u6211\uff01\u201d
p7
aV\u809a\u5b50\u4e0d\u8212\u670d\uff0c\u673a\u573a\u8fc7\u5b89\u68c0\uff0c\uff0c\uff0c\u5b89\u68c0\u5458\u5728\u6211\u8eab\u540e\u4fef\u4e0b\u8eab\u5b50\u68c0\u67e5\u6211\u978b\u5b50\uff0c\u6211\u6ca1\u5fcd\u4f4f\u653e\u4e86\u4e00\u4e2a\u5c41\uff0c\u8fd8\u633a\u54cd\u7684\uff0c\uff0c\uff0c\u597d\u7cd7\u5440\uff0c\uff0c\uff0c\u5b89\u68c0\u5458\u770b\u4e86\u6211\u4e00\u773c\uff0c\u6ca1\u8bf4\u8bdd\u3002\u6211\u4e5f\u6ca1\u8bf4\u8bdd\u3002\u53ef\u662f\u6211\u5374\u6ca1\u5fcd\u4f4f\u7b11\u4e86\uff0c\u7b11\u4e86\uff0c\uff0c\uff0c
p8
aV\u5355\u4f4d\u548c\u5bb6\u5c31\u9694\u6761\u9a6c\u8def\uff0c\u5355\u4f4d\u7684\u98ce\u5439\u8349\u52a8\u6709\u65f6\u8001\u5a46\u77e5\u9053\u7684\u6bd4\u6211\u8fd8\u65e9\u2014\u2014\u8fd9\u4e48\u8bf4\u5427\uff0c\u65e9\u4e0a\u5728\u529e\u516c\u5ba4\u770b\u5230\u901a\u77e5:\u9a6c\u4e0a\u53d1\u672c\u6708\u7ee9\u6548\u5956500\uff01\u4e2d\u5348\u56de\u5bb6\u5403\u996d\uff0c\u8001\u5a46\u4e0d\u7ecf\u610f\u5730\u8bf4:\u8001\u516c\uff0c\u5e2e\u6211\u770b\u770b\u8fd9\u6761\u88d9\u5b50\uff0c\u503c\u4e0d\u503c\u4e94\u767e\uff1f<br/>\u6211\u2026\u2026
p9
aV\u95fa\u871c\u60f3\u79df\u623f\u62ce\u5305\u5165\u4f4f\u7684\u90a3\u79cd\uff0c\u8ddf\u7740\u4e2d\u4ecb\u8fdb\u5c4b\u540e\uff0c\u60ca\u5446\u4e86\uff0c\u7535\u8111\u6253\u5f00\u4e94\u5206\u949f\u53ea\u51fa\u4e2a\u84dd\u5c4f\uff0c\u5ba2\u5385\u706f\u50cf\u5728\u8fea\u5427\u4e00\u6837\u4e00\u95ea\u4e00\u95ea\u7684\uff0c\u51b0\u7bb1\u6742\u97f3\u5927\uff0c\u7535\u89c6\u6ca1\u58f0\u97f3\uff0c\u5927\u58f0\u8bf4\u4e2a\u8bdd\u5e8a\u9707\u90fd\u7684\u53fd\u626d\u53fd\u626d\u54cd\uff0c\u8fd9\u4e9b\u90fd\u5fcd\u4e86\uff0c\u7279\u4e48\u7684\u7a7a\u8c03\u4e00\u5f00\u51b7\u98ce\u6ca1\u51fa\u6765\u8001\u9f20\u6389\u4e0b\u6765\u4e24\u4e2a\u628a\u4e2d\u4ecb\u5927\u59d0\u5413\u5f97\u54df\u2026\u62b1\u7740\u6211\u4e00\u4e2a\u52b2\u558a:\u4ffa\u5988~\u4ffa\u5988~\u5988\u5440\u3002
p10
aV\u4eca\u5929\u4e0b\u5348\u53bb\u4e86\u4e00\u8d9f\u5065\u8eab\u623f\uff0c\u9047\u5230\u6709\u4e2a\u4e2d\u5e74\u5987\u4eba\u5e26\u4e86\u4e24\u6761\u96ea\u6a47\u72ac\u6765\uff0c\u4e00\u516c\u4e00\u6bcd\u3002\u7531\u4e8e\u5065\u8eab\u623f\u4e0d\u8ba9\u5ba0\u7269\u5165\u5185\uff0c\u90a3\u5987\u4eba\u5c31\u8ba9\u4e24\u6761\u72d7\u8db4\u5728\u5916\u9762\u3002\u8981\u8bf4\u8fd9\u4e24\u6761\u72d7\u4e5f\u7684\u786e\u542c\u8bdd\uff0c\u5728\u90a3\u513f\u8db4\u4e86\u5dee\u4e0d\u591a\u4e00\u4e2a\u5c0f\u65f6\uff0c\u4e0d\u4e71\u53eb\u4e0d\u4e71\u8dd1\u66f4\u6ca1\u6709\u5230\u5904\u5c0f\u4fbf\u6216\u54ac\u4eba\u3002\u4e8e\u662f\u7b49\u90a3\u5987\u4eba\u51fa\u6765\u7684\u65f6\u5019\uff0c\u4e00\u7fa4\u4eba\u90fd\u56f4\u4e86\u4e0a\u53bb\uff0c\u79f0\u8d5e\u8bf4\u4f60\u8fd9\u4e24\u6761\u72d7\u8bad\u7ec3\u5f97\u771f\u597d\uff0c\u6ca1\u6709\u4eba\u7ba1\u7740\u4e5f\u4e0d\u4e71\u6765\u3002<br/><br/>\u90a3\u5987\u4eba\u542c\u5927\u5bb6\u79f0\u8d5e\u5979\u7684\u72d7\u4e56\uff0c\u5fc3\u91cc\u4e5f\u9ad8\u5174\uff0c\u5c31\u53d1\u8868\u8d77\u5173\u4e8e\u9a6f\u72d7\u7684\u957f\u7bc7\u5927\u8bba\u6765\uff1a\u201c\u5176\u5b9e\u8fd9\u72d7\u72d7\u5440\uff0c\u4e5f\u662f\u770b\u4e3b\u4eba\u7684\u3002\u6709\u4ec0\u4e48\u6837\u7684\u4e3b\u4eba\uff0c\u5c31\u6709\u4ec0\u4e48\u6837\u7684\u72d7\u72d7\u3002\u6bd4\u5982\u90a3\u4e9b\u5728\u8857\u4e0a\u968f\u5904\u5c0f\u4fbf\u7684\u72d7\u72d7\u5427\uff0c\u5b83\u4eec\u7684\u4e3b\u4eba\u80af\u5b9a\u7d20\u8d28\u5c31\u4e0d\u600e\u4e48\u6837\uff0c\u8fde\u7d2f\u5b83...
p11
aV\u8def\u9047\u4e00\u5bf9\u7236\u5b50\uff0c\u5c0f\u5b69\u513f\u4e24\u5c81\u7684\u6837\u5b50\uff0c\u4e5f\u4e0d\u77e5\u9053\u600e\u4e48\u4e86\uff0c\u5c0f\u5b69\u513f\u4e00\u76f4\u54ed\u5f97\u6495\u5fc3\u88c2\u80ba\uff0c\u53ef\u662f\uff0c\u54ed\u7740\u54ed\u7740\u7a81\u7136\u4e0d\u54ed\u4e86\uff0c\u4ef0\u8d77\u6302\u6ee1\u6cea\u73e0\u7684\u5c0f\u8138\u5f88\u8ba4\u771f\u7684\u95ee\u90a3\u4ed6\u7238\u201c\u7238\u7238\uff0c\u6211\u4e3a\u4ec0\u4e48\u8981\u54ed\u554a\uff1f\u201d<br/>\u4ed6\u7238\u4e5f\u5f88\u65e0\u5948\uff0c\u8bf4\u6211\u600e\u4e48\u77e5\u9053\u4f60\u4e3a\u4ec0\u4e48\u8981\u54ed<br/>\u5c31\u542c\u89c1\u4ed6\u53c8\u5f00\u59cb\u5e26\u7740\u54ed\u8154\u568e\u4e86\u201c\u6211\u4e3a\u4ec0\u4e48\u8981\u54ed\u554a\uff5e\uff5e\uff5e\u201d
p12
aV\u6211\u59b9\u4e70\u4e1c\u897f\u7ecf\u5e38\u90ae\u5bc4\u5230\u6211\u4e0a\u73ed\u7684\u5e97\u91cc\uff0c\u5973\u751f\u4e70\u7684\u4e1c\u897f\u90fd\u6bd4\u8f83\u591a\uff0c\u6bcf\u6b21\u90fd\u4e0d\u60f3\u62ff\uff0c\u6211\u5c31\u7ed9\u5979\u5f00\u73a9\u7b11\u8bf4\uff0c\u4f60\u80fd\u4e0d\u80fd\u4e70\u4e1c\u897f\u4e0d\u8981\u5bc4\u6211\u5e97\u91cc\uff0c\u8001\u677f\u90fd\u8bef\u4f1a\u4e86\uff0c\u8fd8\u4ee5\u4e3a\u6211\u662f\u5bcc\u4e8c\u4ee3\u5462\uff0c\u4e0d\u53d1\u6211\u5de5\u8d44\u4f60\u8d1f\u8d23\u3002\u3002\u3002\u3002\u3002\u3002\u3002
p13
aV\u4eca\u5929\u7a7f\u7740\u4e00\u5957\u9ec4\u8272\u548c\u9ed1\u8272\u76f8\u95f4\u7684\u8863\u670d\u51c6\u5907\u51fa\u95e8\uff0c\u7167\u7167\u955c\u5b50\u611f\u89c9\u7f8e\u7f8e\u54d2\u3002\u521a\u8d70\u51fa\u623f\u95f4\uff0c\u6211\u7238\u4e00\u8dc3\u800c\u8d77\u53cc\u624b\u4e00\u62cd\u5927\u558a\u4e00\u58f0:\u554a\u54d2\u2026\u2026\u7136\u540e\u51b2\u6211\u6324\u6324\u773c\u775b:\u95fa\u5973\uff0c\u4f60\u7a7f\u8fd9\u8eab\u662f\u6253\u7b97\u6a21\u4eff\u674e\u5c0f\u9f99\u5417\uff1f\u8001\u7238\u5f88\u4e50\u610f\u4e3a\u4f60\u6307\u70b9\u51e0\u62db\uff01<br/>\u989d\u2026\u2026
p14
aV\u670b\u53cb\u8bf4\u5979\u624b\u91cc\u6709\u5f88\u591a\u6c61\u6bb5\u5b50\u3002\u5b9e\u5728\u662f\u4e0d\u597d\u610f\u601d\u53d1\u51fa\u6765\u3002\u6211\u8bf4\u8fd9\u6837\u5427\uff1a\u628a\u6c61\u7684\u90fd\u6458\u51fa\u53bb\uff0c\u7ed9\u5927\u4f19\u5206\u4eab\u4e00\u4e0b\u2026\u2026\u2026\u2026\u7b97\u4e86\uff0c\u6458\u4e86\u4e00\u4e2a\u90fd\u6ca1\u4e86\u2026\u2026
p15
aV<img src="/static/images/thumb/anony.png?v=b61e7f5162d14b7c0d5f419cd6649c87" alt="\u533f\u540d\u7528\u6237"/>
p16
aV<h2>\u533f\u540d\u7528\u6237</h2>
p17
aV\u697c\u4e3b\u5728\u7cae\u6cb9\u526f\u98df\u54c1\u516c\u53f8\u4e0a\u73ed\uff0c\u8fc7\u5e74\u7684\u65f6\u5019\u53d1\u4e86\u4e00\u888b\u7c73\u4e00\u5305\u7ea2\u8c46\u4e00\u888b\u9762\u7c89\uff0c\u7aef\u5348\u4e86\uff0c\u8fd8\u662f\u53d1\u7684\u4e00\u888b\u7c73\u4e00\u5305\u7ea2\u8c46\u4e00\u888b\u9762\u7c89\uff0c\u90fd\u662f\u5356\u4e0d\u6389\u5feb\u8fc7\u671f\u7684\u4e1c\u897f\uff0c\u6211\u4eec\u5c31\u548c\u4eba\u4e8b\u7ecf\u7406\u53cd\u5e94\uff0c\u4ec0\u4e48\u8282\u90fd\u8001\u4e09\u6837\uff0c\u80fd\u4e0d\u80fd\u5e94\u4e2a\u666f\u53d1\u70b9\u7cbd\u5b50\u4ec0\u4e48\u7684\uff0c\u7ecf\u7406\u4e0d\u8010\u70e6\u7684\u8bf4\uff1a\u6750\u6599\u90fd\u53d1\u7ed9\u4f60\u4eec\u4e86\uff0c\u4e70\u70b9\u7cbd\u53f6\u56de\u53bb\u81ea\u5df1\u5305\u53bb......\u6211\u5600\u5495\u4e86\u4e00\u58f0\uff1a\u8fd9\u7279\u4e48\u5f97\u5305\u5230\u90a3\u5929\uff0c\u7ecf\u7406\u53c8\u6765\u4e00\u53e5\uff1a\u5269\u4e0b\u7684\u4e2d\u79cb\u8282\u64c0\u70b9\u9762\u505a\u6708\u997c\u53bb\u3002
p18
aV\u8bb0\u5f97\u4ee5\u524d\u4e0a\u521d\u4e2d\uff0c\u8bed\u6587\u8001\u5e08\uff0c\u7279\u7231\u627e\u832c\u3002\u6bcf\u6b21\u8bb2\u8bfe\u8bb2\u7684\u597d\u597d\u7684\u5c31\u53d1\u813e\u6c14\u3002\u4e00\u901a\u4e71\u543c\u3002\u76f4\u5230\u6709\u6b21\uff0c\u628a\u5047\u7259\u543c\u51fa\u6765\u4e86\u3002\u81ea\u4e2a\u8fd8\u4e0d\u77e5\u9053\u5462\u3002\u4e8b\u540e\u624d\u53d1\u73b0\u8fc7\u6765\u3002\u6240\u4ee5\u6211\u4eec\u73ed\uff08\u6ee1\u5730\u627e\u7259\uff09\u5b66\u7684\u7279\u522b\u7cbe\u3002\u3002\u4f46\u4ece\u90a3\u4e4b\u540e\u5728\u4e0a\u6211\u4eec\u73ed\u7684\u8bfe\u5b89\u9759\u591a\u4e86\u3002\u5c31\u8fd9\u4e8b\u4e00\u76f4\u88ab\u6211\u4eec\u7b11\u4e86\u4e09\u5e74\u3002
p19
aV\u53bb\u53c2\u52a0\u524d\u4efb\u7684\u5a5a\u793c\uff0c\u5750\u5728\u201c\u524d\u7537\u53cb\u201d \u4e00\u684c\u3002\u5e2d\u95f4\uff0c\u8fb9\u4e0a\u7684\u54e5\u4eec\u7528\u624b\u6345\u4e86\u6345lz\u8170\u95f4\u671d\u7740\u65b0\u90ce\u65b0\u5a18\u52aa\u52aa\u5634\u9053\uff1a\u201c\u540e\u6094\u6c92\uff1f\u5979\u7a7f\u4e0a\u5a5a\u7eb1\u786e\u5b9e\u5f88\u6f02\u4eae\uff01\u201d lz\u5e7d\u5e7d\u9053\uff1a\u201c\u4f60\u8bef\u4f1a\u4e86\uff01\u6211\u524d\u4efb\u662f\u7a7f\u897f\u88c5\u90a3\u4f4d\uff01\u201d  \u2026\u2026
p20
aV<img src="/static/images/thumb/anony.png?v=b61e7f5162d14b7c0d5f419cd6649c87" alt="\u533f\u540d\u7528\u6237"/>
p21
aV<h2>\u533f\u540d\u7528\u6237</h2>
p22
aV\u90bb\u5c45\u59b9\u5b50\u5f53\u521d\u624d15-16\u5c81\uff0c\u5c31\u8bf4\u8981\u63a5\u53d7\u90a3\u7537\u5b50\u3002<br/>\u6211\u5bf9\u90bb\u5c45\u59b9\u5b50\u8bf4\uff0c\u90a3\u7537\u7684\u90fd26\u5c81\u4e86\uff0c\u4ed6\u8fd8\u6ca1\u5de5\u4f5c\uff0c\u6574\u5929\u5728\u6e9c\u51b0\u573a\u73a9\uff0c\u73a9\u90a3\u8df3\u821e\u7684\u6e38\u620f\uff0c\u4ed6\u6ca1\u6cd5\u7167\u987e\u597d\u4f60\u7684\u3002<br/>\u90bb\u5c45\u59b9\u5b50\u4e0d\u542c\u529d\uff0c\u5728\u597917\u5c81\uff0c\u5c31\u5ac1\u7ed9\u4ed6\u4e86\u3002\u7136\u800c\u5979\u4e3a\u90a3\u7537\u5b50\u751f\u4e0b\u4fe9\u4e2a\u5b69\u5b50\uff0c22\u5c81\u8ddf\u90a3\u7537\u7684\u79bb\u5a5a\u4e86\u3002<br/>\u56e0\u4e3a\u90a3\u7537\u7684\u9664\u4e86\u6e9c\u51b0\uff0c\u6253\u6e38\u620f\uff0c\u5565\u4e5f\u4e0d\u4f1a\uff0c\u8fde\u5b69\u5b50\u5976\u7c89\u94b1\u90fd\u662f\u5a18\u5bb6\u51fa\u3002<br/><br/>22\u5c81\u7684\u5979\uff0c\u751f\u8fc7\u4fe9\u5b69\u5b50\uff0c\u8eab\u6750\u4e25\u91cd\u53d8\u5f62\u3002\u4e00\u7c73\u516d\uff0c\u4f53\u91cd\u4e00\u767e\u4e94\u3002\uff08\u4ea7\u540e\u6ca1\u8c03\u7406\u3002\uff09<br/>\u5979\u65f6\u5e38\u5bf9\u6211\u8bf4\uff0c\u54e5\uff0c\u6211\u597d\u540e\u6094\u3002<br/>\u6211\u53ea\u80fd\u5bf9\u5979\u8bf4\uff0c\u81ea\u5df1\u9009\u7684\u8def\uff0c\u4f60\u54ed\u7740\u4e5f\u5f97\u8d70\u5b8c\u3002
p23
aV\u8001\u4e8c\u5728\u809a\u5b50\u91cc\u56db\u4e2a\u6708\u7684\u65f6\u5019\u5750\u98de\u673a\u56de\u5a18\u5bb6\uff0c\u4e00\u8fdb\u5927\u5385\uff0c\u5c31\u89c1\u5a18\u4eb2\uff0c\u8001\u7239\u8fd8\u6709\u8205\u8205\u8001\u8fdc\u5c31\u51b2\u6211\u62db\u624b\u3002\u7b49\u5230\u4e86\u8f66\u4e0a\uff0c\u6211\u5988\u8bf4\uff1a\u673a\u573a\u7684\u4eba\u4e00\u70b9\u4eba\u60c5\u5473\u90fd\u6ca1\u6709\uff0c\u6211\u8bf4\u6211\u95fa\u5973\u6000\u7740\u8001\u4e8c\uff0c\u8001\u5927\u8fd8\u5c0f\uff0c\u80fd\u4e0d\u80fd\u8ba9\u6211\u8d70\u8fd1\u4e00\u70b9\u63a5\u5979\u4eec\uff0c\u4eba\u5bb6\u8bf4\u4e0d\u53ef\u4ee5\u3002\u542c\u7684\u6211\u70ed\u6cea\u76c8\u7736\u554a\u3002
p24
asS'LastUpdate'
p25
F1495981541.467
s.